target datalayout = "e-m:e-p270:32:32-p271:32:32-p272:64:64-i64:64-i128:128-f80:128-n8:16:32:64-S128"
target triple = "x86_64-pc-linux-gnu"

%"class.std::__cxx11::basic_string" = type { %"struct.std::__cxx11::basic_string<char>::_Alloc_hider", i64, %union.anon }
%"struct.std::__cxx11::basic_string<char>::_Alloc_hider" = type { ptr }
%union.anon = type { i64, [8 x i8] }

; Function Attrs: mustprogress uwtable
define internal void @_ZN12_GLOBAL__N_116cmSplitExtensionERKNSt7__cxx1112basic_stringIcSt11char_traitsIcESaIcEEERS5_(ptr dead_on_unwind noalias writable sret(%"class.std::__cxx11::basic_string") align 8 %0, ptr noundef nonnull align 8 dereferenceable(32) %1, ptr noundef nonnull align 8 dereferenceable(32) %2) #4 personality ptr @__gxx_personality_v0 {
  %4 = alloca ptr, align 8
  %5 = alloca ptr, align 8
  %6 = alloca ptr, align 8
  %7 = alloca i1, align 1
  %8 = alloca i64, align 8
  %9 = alloca %"class.std::__cxx11::basic_string", align 8
  %10 = alloca ptr, align 8
  %11 = alloca i32, align 4
  %12 = alloca %"class.std::__cxx11::basic_string", align 8
  store ptr %0, ptr %4, align 8
  store ptr %1, ptr %5, align 8
  store ptr %2, ptr %6, align 8
  store i1 false, ptr %7, align 1
  call void @_ZNSt7__cxx1112basic_stringIcSt11char_traitsIcESaIcEEC1Ev(ptr noundef nonnull align 8 dereferenceable(32) %0) #3
  %13 = load ptr, ptr %5, align 8
  %14 = call noundef i64 @_ZNKSt7__cxx1112basic_stringIcSt11char_traitsIcESaIcEE5rfindEcm(ptr noundef nonnull align 8 dereferenceable(32) %13, i8 noundef signext 46, i64 noundef -1) #3
  store i64 %14, ptr %8, align 8
  %15 = load i64, ptr %8, align 8
  %16 = icmp ne i64 %15, -1
  br i1 %16, label %17, label %31

17:                                               ; preds = %3
  %18 = load ptr, ptr %5, align 8
  %19 = load i64, ptr %8, align 8
  invoke void @_ZNKSt7__cxx1112basic_stringIcSt11char_traitsIcESaIcEE6substrEmm(ptr dead_on_unwind writable sret(%"class.std::__cxx11::basic_string") align 8 %9, ptr noundef nonnull align 8 dereferenceable(32) %18, i64 noundef %19, i64 noundef -1)
          to label %20 unwind label %27

20:                                               ; preds = %17
  %21 = call noundef nonnull align 8 dereferenceable(32) ptr @_ZNSt7__cxx1112basic_stringIcSt11char_traitsIcESaIcEEaSEOS4_(ptr noundef nonnull align 8 dereferenceable(32) %0, ptr noundef nonnull align 8 dereferenceable(32) %9) #3
  call void @_ZNSt7__cxx1112basic_stringIcSt11char_traitsIcESaIcEED1Ev(ptr noundef nonnull align 8 dereferenceable(32) %9) #3
  %22 = load ptr, ptr %5, align 8
  %23 = load i64, ptr %8, align 8
  invoke void @_ZNKSt7__cxx1112basic_stringIcSt11char_traitsIcESaIcEE6substrEmm(ptr dead_on_unwind writable sret(%"class.std::__cxx11::basic_string") align 8 %12, ptr noundef nonnull align 8 dereferenceable(32) %22, i64 noundef 0, i64 noundef %23)
          to label %24 unwind label %27

24:                                               ; preds = %20
  %25 = load ptr, ptr %6, align 8
  %26 = call noundef nonnull align 8 dereferenceable(32) ptr @_ZNSt7__cxx1112basic_stringIcSt11char_traitsIcESaIcEEaSEOS4_(ptr noundef nonnull align 8 dereferenceable(32) %25, ptr noundef nonnull align 8 dereferenceable(32) %12) #3
  call void @_ZNSt7__cxx1112basic_stringIcSt11char_traitsIcESaIcEED1Ev(ptr noundef nonnull align 8 dereferenceable(32) %12) #3
  br label %36

27:                                               ; preds = %31, %20, %17
  %28 = landingpad { ptr, i32 }
          cleanup
  %29 = extractvalue { ptr, i32 } %28, 0
  store ptr %29, ptr %10, align 8
  %30 = extractvalue { ptr, i32 } %28, 1
  store i32 %30, ptr %11, align 4
  call void @_ZNSt7__cxx1112basic_stringIcSt11char_traitsIcESaIcEED1Ev(ptr noundef nonnull align 8 dereferenceable(32) %0) #3
  br label %40

31:                                               ; preds = %3
  %32 = load ptr, ptr %5, align 8
  %33 = load ptr, ptr %6, align 8
  %34 = invoke noundef nonnull align 8 dereferenceable(32) ptr @_ZNSt7__cxx1112basic_stringIcSt11char_traitsIcESaIcEEaSERKS4_(ptr noundef nonnull align 8 dereferenceable(32) %33, ptr noundef nonnull align 8 dereferenceable(32) %32)
          to label %35 unwind label %27

35:                                               ; preds = %31
  br label %36

36:                                               ; preds = %35, %24
  store i1 true, ptr %7, align 1
  %37 = load i1, ptr %7, align 1
  br i1 %37, label %39, label %38

38:                                               ; preds = %36
  call void @_ZNSt7__cxx1112basic_stringIcSt11char_traitsIcESaIcEED1Ev(ptr noundef nonnull align 8 dereferenceable(32) %0) #3
  br label %39

39:                                               ; preds = %38, %36
  ret void

40:                                               ; preds = %27
  %41 = load ptr, ptr %10, align 8
  %42 = load i32, ptr %11, align 4
  %43 = insertvalue { ptr, i32 } poison, ptr %41, 0
  %44 = insertvalue { ptr, i32 } %43, i32 %42, 1
  resume { ptr, i32 } %44
}